; ModuleID = '16/1273.c'
source_filename = "16/1273.c"
target datalayout = "e-m:e-p270:32:32-p271:32:32-p272:64:64-i64:64-f80:128-n8:16:32:64-S128"
target triple = "x86_64-pc-linux-gnu"

@.str = private unnamed_addr constant [3 x i8] c"%d\00", align 1
@.str.1 = private unnamed_addr constant [6 x i8] c"00001\00", align 1
@.str.2 = private unnamed_addr constant [9 x i8] c"%d%d%d%d\00", align 1
@.str.3 = private unnamed_addr constant [7 x i8] c"%d%d%d\00", align 1
@.str.4 = private unnamed_addr constant [5 x i8] c"%d%d\00", align 1

; Function Attrs: noinline nounwind uwtable
define dso_local i32 @main() #0 {
  %1 = alloca i32, align 4
  %2 = alloca i32, align 4
  %3 = alloca i32, align 4
  %4 = alloca i32, align 4
  %5 = alloca i32, align 4
  store i32 0, i32* %1, align 4
  %6 = call i32 (i8*, ...) @__isoc99_scanf(i8* getelementptr inbounds ([3 x i8], [3 x i8]* @.str, i64 0, i64 0), i32* %2)
  %7 = load i32, i32* %2, align 4
  %8 = icmp eq i32 %7, 10000
  br i1 %8, label %9, label %11

9:                                                ; preds = %0
  %10 = call i32 (i8*, ...) @printf(i8* getelementptr inbounds ([6 x i8], [6 x i8]* @.str.1, i64 0, i64 0))
  br label %77

11:                                               ; preds = %0
  %12 = load i32, i32* %2, align 4
  %13 = icmp sge i32 %12, 1000
  br i1 %13, label %14, label %38

14:                                               ; preds = %11
  %15 = load i32, i32* %2, align 4
  %16 = srem i32 %15, 10
  store i32 %16, i32* %3, align 4
  %17 = load i32, i32* %2, align 4
  %18 = load i32, i32* %3, align 4
  %19 = sub nsw i32 %17, %18
  %20 = sdiv i32 %19, 10
  store i32 %20, i32* %2, align 4
  %21 = load i32, i32* %2, align 4
  %22 = srem i32 %21, 10
  store i32 %22, i32* %4, align 4
  %23 = load i32, i32* %2, align 4
  %24 = load i32, i32* %4, align 4
  %25 = sub nsw i32 %23, %24
  %26 = sdiv i32 %25, 10
  store i32 %26, i32* %2, align 4
  %27 = load i32, i32* %2, align 4
  %28 = srem i32 %27, 10
  store i32 %28, i32* %5, align 4
  %29 = load i32, i32* %2, align 4
  %30 = load i32, i32* %5, align 4
  %31 = sub nsw i32 %29, %30
  %32 = sdiv i32 %31, 10
  store i32 %32, i32* %2, align 4
  %33 = load i32, i32* %3, align 4
  %34 = load i32, i32* %4, align 4
  %35 = load i32, i32* %5, align 4
  %36 = load i32, i32* %2, align 4
  %37 = call i32 (i8*, ...) @printf(i8* getelementptr inbounds ([9 x i8], [9 x i8]* @.str.2, i64 0, i64 0), i32 %33, i32 %34, i32 %35, i32 %36)
  br label %76

38:                                               ; preds = %11
  %39 = load i32, i32* %2, align 4
  %40 = icmp sge i32 %39, 100
  br i1 %40, label %41, label %58

41:                                               ; preds = %38
  %42 = load i32, i32* %2, align 4
  %43 = srem i32 %42, 10
  store i32 %43, i32* %3, align 4
  %44 = load i32, i32* %2, align 4
  %45 = load i32, i32* %3, align 4
  %46 = sub nsw i32 %44, %45
  %47 = sdiv i32 %46, 10
  store i32 %47, i32* %2, align 4
  %48 = load i32, i32* %2, align 4
  %49 = srem i32 %48, 10
  store i32 %49, i32* %4, align 4
  %50 = load i32, i32* %2, align 4
  %51 = load i32, i32* %4, align 4
  %52 = sub nsw i32 %50, %51
  %53 = sdiv i32 %52, 10
  store i32 %53, i32* %2, align 4
  %54 = load i32, i32* %3, align 4
  %55 = load i32, i32* %4, align 4
  %56 = load i32, i32* %2, align 4
  %57 = call i32 (i8*, ...) @printf(i8* getelementptr inbounds ([7 x i8], [7 x i8]* @.str.3, i64 0, i64 0), i32 %54, i32 %55, i32 %56)
  br label %75

58:                                               ; preds = %38
  %59 = load i32, i32* %2, align 4
  %60 = icmp sge i32 %59, 10
  br i1 %60, label %61, label %71

61:                                               ; preds = %58
  %62 = load i32, i32* %2, align 4
  %63 = srem i32 %62, 10
  store i32 %63, i32* %3, align 4
  %64 = load i32, i32* %2, align 4
  %65 = load i32, i32* %3, align 4
  %66 = sub nsw i32 %64, %65
  %67 = sdiv i32 %66, 10
  store i32 %67, i32* %2, align 4
  %68 = load i32, i32* %3, align 4
  %69 = load i32, i32* %2, align 4
  %70 = call i32 (i8*, ...) @printf(i8* getelementptr inbounds ([5 x i8], [5 x i8]* @.str.4, i64 0, i64 0), i32 %68, i32 %69)
  br label %74

71:                                               ; preds = %58
  %72 = load i32, i32* %2, align 4
  %73 = call i32 (i8*, ...) @printf(i8* getelementptr inbounds ([3 x i8], [3 x i8]* @.str, i64 0, i64 0), i32 %72)
  br label %74

74:                                               ; preds = %71, %61
  br label %75

75:                                               ; preds = %74, %41
  br label %76

76:                                               ; preds = %75, %14
  br label %77

77:                                               ; preds = %76, %9
  ret i32 0
}

declare dso_local i32 @__isoc99_scanf(i8*, ...) #1

declare dso_local i32 @printf(i8*, ...) #1


!llvm.module.flags = !{!0}
!llvm.ident = !{!1}

!0 = !{i32 1, !"wchar_size", i32 4}
!1 = !{!"clang version 10.0.0-4ubuntu1 "}
